; Function Attrs: mustprogress nounwind uwtable
define internal fastcc noundef zeroext i1 @_ZN5clang19RecursiveASTVisitorINS_12_GLOBAL__N_17BuilderEE24TraverseIndirectGotoStmtEPNS_16IndirectGotoStmtEPN4llvm15SmallVectorImplINS6_14PointerIntPairIPNS_4StmtELj1EbNS6_21PointerLikeTypeTraitsISA_EENS6_18PointerIntPairInfoISA_Lj1ESC_EEEEEE(ptr noundef nonnull align 1 dereferenceable(1) %0, ptr noundef nonnull %1, ptr noundef %2) unnamed_addr #0 align 2 {
  %4 = alloca %"class.llvm::iterator_range", align 8
  %5 = alloca %"struct.clang::StmtIterator", align 8
  call void @_ZN5clang4Stmt8childrenEv(ptr dead_on_unwind nonnull writable sret(%"class.llvm::iterator_range") align 8 %4, ptr noundef nonnull align 8 dereferenceable(8) %1) #14
  call void @llvm.memcpy.p0.p0.i64(ptr noundef nonnull align 8 dereferenceable(24) %5, ptr noundef nonnull align 8 dereferenceable(48) %4, i64 24, i1 false)
  %6 = getelementptr inbounds nuw i8, ptr %4, i64 24
  %.sroa.0.0.copyload = load ptr, ptr %6, align 8
  %.sroa.2.0..sroa_idx = getelementptr inbounds nuw i8, ptr %4, i64 32
  %.sroa.2.0.copyload = load i64, ptr %.sroa.2.0..sroa_idx, align 8
  %7 = getelementptr inbounds nuw i8, ptr %5, i64 8
  %8 = load ptr, ptr %5, align 8
  %9 = icmp eq ptr %8, %.sroa.0.0.copyload
  %10 = load i64, ptr %7, align 8
  %11 = icmp eq i64 %10, %.sroa.2.0.copyload
  %.not3.i.not13 = select i1 %9, i1 %11, i1 false
  br i1 %.not3.i.not13, label %._crit_edge, label %.lr.ph

.lr.ph:                                           ; preds = %3, %_ZN5clang16StmtIteratorImplINS_12StmtIteratorERPNS_4StmtEEppEv.exit
  %12 = phi i64 [ %33, %_ZN5clang16StmtIteratorImplINS_12StmtIteratorERPNS_4StmtEEppEv.exit ], [ %10, %3 ]
  %13 = phi ptr [ %31, %_ZN5clang16StmtIteratorImplINS_12StmtIteratorERPNS_4StmtEEppEv.exit ], [ %8, %3 ]
  %14 = and i64 %12, 3
  %15 = icmp eq i64 %14, 0
  br i1 %15, label %_ZNK5clang16StmtIteratorImplINS_12StmtIteratorERPNS_4StmtEEdeEv.exit, label %16

16:                                               ; preds = %.lr.ph
  %17 = call noundef nonnull align 8 dereferenceable(8) ptr @_ZNK5clang16StmtIteratorBase11GetDeclExprEv(ptr noundef nonnull align 8 dereferenceable(24) %5) #14
  br label %_ZNK5clang16StmtIteratorImplINS_12StmtIteratorERPNS_4StmtEEdeEv.exit

_ZNK5clang16StmtIteratorImplINS_12StmtIteratorERPNS_4StmtEEdeEv.exit: ; preds = %.lr.ph, %16
  %18 = phi ptr [ %17, %16 ], [ %13, %.lr.ph ]
  %19 = load ptr, ptr %18, align 8
  %20 = call fastcc noundef zeroext i1 @_ZN5clang19RecursiveASTVisitorINS_12_GLOBAL__N_17BuilderEE12TraverseStmtEPNS_4StmtEPN4llvm15SmallVectorImplINS6_14PointerIntPairIS5_Lj1EbNS6_21PointerLikeTypeTraitsIS5_EENS6_18PointerIntPairInfoIS5_Lj1ESA_EEEEEE(ptr noundef nonnull align 1 dereferenceable(1) %0, ptr noundef %19, ptr noundef %2)
  br i1 %20, label %21, label %._crit_edge

21:                                               ; preds = %_ZNK5clang16StmtIteratorImplINS_12StmtIteratorERPNS_4StmtEEdeEv.exit
  %22 = load i64, ptr %7, align 8
  %23 = and i64 %22, 3
  %24 = icmp eq i64 %23, 0
  br i1 %24, label %25, label %28

25:                                               ; preds = %21
  %26 = load ptr, ptr %5, align 8
  %27 = getelementptr inbounds nuw i8, ptr %26, i64 8
  store ptr %27, ptr %5, align 8
  br label %_ZN5clang16StmtIteratorImplINS_12StmtIteratorERPNS_4StmtEEppEv.exit

28:                                               ; preds = %21
  %.not.i = icmp ult i64 %22, 4
  br i1 %.not.i, label %30, label %29

29:                                               ; preds = %28
  call void @_ZN5clang16StmtIteratorBase6NextVAEv(ptr noundef nonnull align 8 dereferenceable(24) %5) #14
  br label %_ZN5clang16StmtIteratorImplINS_12StmtIteratorERPNS_4StmtEEppEv.exit

30:                                               ; preds = %28
  call void @_ZN5clang16StmtIteratorBase8NextDeclEb(ptr noundef nonnull align 8 dereferenceable(24) %5, i1 noundef zeroext true) #14
  br label %_ZN5clang16StmtIteratorImplINS_12StmtIteratorERPNS_4StmtEEppEv.exit

_ZN5clang16StmtIteratorImplINS_12StmtIteratorERPNS_4StmtEEppEv.exit: ; preds = %25, %29, %30
  %31 = load ptr, ptr %5, align 8
  %32 = icmp eq ptr %31, %.sroa.0.0.copyload
  %33 = load i64, ptr %7, align 8
  %34 = icmp eq i64 %33, %.sroa.2.0.copyload
  %.not3.i.not = select i1 %32, i1 %34, i1 false
  br i1 %.not3.i.not, label %._crit_edge, label %.lr.ph

._crit_edge:                                      ; preds = %_ZNK5clang16StmtIteratorImplINS_12StmtIteratorERPNS_4StmtEEdeEv.exit, %_ZN5clang16StmtIteratorImplINS_12StmtIteratorERPNS_4StmtEEppEv.exit, %3
  %.not3.i.not.lcssa = phi i1 [ true, %3 ], [ %20, %_ZN5clang16StmtIteratorImplINS_12StmtIteratorERPNS_4StmtEEppEv.exit ], [ %20, %_ZNK5clang16StmtIteratorImplINS_12StmtIteratorERPNS_4StmtEEdeEv.exit ]
  ret i1 %.not3.i.not.lcssa
}